; Function Attrs: mustprogress uwtable
define hidden noundef i32 @_ZN21bv2real_elim_rewriter11mk_app_coreEP9func_decljPKP4exprR7obj_refIS2_11ast_managerE(ptr nocapture noundef nonnull readonly align 8 dereferenceable(8) %this, ptr noundef %f, i32 %num_args, ptr nocapture noundef readonly %args, ptr nocapture noundef nonnull align 8 dereferenceable(16) %result) local_unnamed_addr #3 align 2 personality ptr @__gxx_personality_v0 {
invoke.cont:
  %m = alloca ptr, align 8
  %n = alloca ptr, align 8
  %d = alloca %class.rational, align 8
  %r = alloca %class.rational, align 8
  store i32 0, ptr %d, align 8
  %m_kind.i.i.i = getelementptr inbounds i8, ptr %d, i64 4
  store i8 0, ptr %m_kind.i.i.i, align 4
  %m_ptr.i.i.i = getelementptr inbounds i8, ptr %d, i64 8
  store ptr null, ptr %m_ptr.i.i.i, align 8
  %m_den.i.i = getelementptr inbounds i8, ptr %d, i64 16
  store i32 1, ptr %m_den.i.i, align 8
  %m_kind.i1.i.i = getelementptr inbounds i8, ptr %d, i64 20
  store i8 0, ptr %m_kind.i1.i.i, align 4
  %m_ptr.i4.i.i = getelementptr inbounds i8, ptr %d, i64 24
  store ptr null, ptr %m_ptr.i4.i.i, align 8
  store i32 0, ptr %r, align 8
  %m_kind.i.i.i2 = getelementptr inbounds i8, ptr %r, i64 4
  store i8 0, ptr %m_kind.i.i.i2, align 4
  %m_ptr.i.i.i5 = getelementptr inbounds i8, ptr %r, i64 8
  store ptr null, ptr %m_ptr.i.i.i5, align 8
  %m_den.i.i6 = getelementptr inbounds i8, ptr %r, i64 16
  store i32 1, ptr %m_den.i.i6, align 8
  %m_kind.i1.i.i7 = getelementptr inbounds i8, ptr %r, i64 20
  store i8 0, ptr %m_kind.i1.i.i7, align 4
  %m_ptr.i4.i.i10 = getelementptr inbounds i8, ptr %r, i64 24
  store ptr null, ptr %m_ptr.i4.i.i10, align 8
  %0 = load ptr, ptr %this, align 8
  %call = invoke noundef zeroext i1 @_ZNK12bv2real_util10is_bv2realEP9func_decljPKP4exprRS3_S6_R8rationalS8_(ptr noundef nonnull align 8 dereferenceable(272) %0, ptr noundef %f, i32 poison, ptr noundef %args, ptr noundef nonnull align 8 dereferenceable(8) %m, ptr noundef nonnull align 8 dereferenceable(8) %n, ptr noundef nonnull align 8 dereferenceable(32) %d, ptr noundef nonnull align 8 dereferenceable(32) %r)
          to label %invoke.cont3 unwind label %lpad2

invoke.cont3:                                     ; preds = %invoke.cont
  br i1 %call, label %if.then, label %cleanup

if.then:                                          ; preds = %invoke.cont3
  %1 = load ptr, ptr %this, align 8
  %2 = load ptr, ptr %m, align 8
  %3 = load ptr, ptr %n, align 8
  invoke void @_ZN12bv2real_util18mk_bv2real_reducedEP4exprS1_RK8rationalS4_R7obj_refIS0_11ast_managerE(ptr noundef nonnull align 8 dereferenceable(272) %1, ptr noundef %2, ptr noundef %3, ptr noundef nonnull align 8 dereferenceable(32) %d, ptr noundef nonnull align 8 dereferenceable(32) %r, ptr noundef nonnull align 8 dereferenceable(16) %result)
          to label %cleanup unwind label %lpad2

lpad2:                                            ; preds = %if.then, %invoke.cont
  %4 = landingpad { ptr, i32 }
          cleanup
  call void @_ZN8rationalD2Ev(ptr noundef nonnull align 8 dereferenceable(32) %r) #19
  call void @_ZN8rationalD2Ev(ptr noundef nonnull align 8 dereferenceable(32) %d) #19
  resume { ptr, i32 } %4

cleanup:                                          ; preds = %invoke.cont3, %if.then
  %retval.0 = phi i32 [ 3, %if.then ], [ 5, %invoke.cont3 ]
  %5 = load ptr, ptr @_ZN8rational13g_mpq_managerE, align 8
  invoke void @_ZN11mpz_managerILb1EE3delEPS0_R3mpz(ptr noundef %5, ptr noundef nonnull align 8 dereferenceable(16) %r)
          to label %.noexc.i unwind label %terminate.lpad.i

.noexc.i:                                         ; preds = %cleanup
  invoke void @_ZN11mpz_managerILb1EE3delEPS0_R3mpz(ptr noundef %5, ptr noundef nonnull align 8 dereferenceable(16) %m_den.i.i6)
          to label %_ZN8rationalD2Ev.exit unwind label %terminate.lpad.i

terminate.lpad.i:                                 ; preds = %.noexc.i, %cleanup
  %6 = landingpad { ptr, i32 }
          catch ptr null
  %7 = extractvalue { ptr, i32 } %6, 0
  call void @__clang_call_terminate(ptr %7) #18
  unreachable

_ZN8rationalD2Ev.exit:                            ; preds = %.noexc.i
  %8 = load ptr, ptr @_ZN8rational13g_mpq_managerE, align 8
  invoke void @_ZN11mpz_managerILb1EE3delEPS0_R3mpz(ptr noundef %8, ptr noundef nonnull align 8 dereferenceable(16) %d)
          to label %.noexc.i13 unwind label %terminate.lpad.i12

.noexc.i13:                                       ; preds = %_ZN8rationalD2Ev.exit
  invoke void @_ZN11mpz_managerILb1EE3delEPS0_R3mpz(ptr noundef %8, ptr noundef nonnull align 8 dereferenceable(16) %m_den.i.i)
          to label %_ZN8rationalD2Ev.exit15 unwind label %terminate.lpad.i12

terminate.lpad.i12:                               ; preds = %.noexc.i13, %_ZN8rationalD2Ev.exit
  %9 = landingpad { ptr, i32 }
          catch ptr null
  %10 = extractvalue { ptr, i32 } %9, 0
  call void @__clang_call_terminate(ptr %10) #18
  unreachable

_ZN8rationalD2Ev.exit15:                          ; preds = %.noexc.i13
  ret i32 %retval.0
}